; Function Attrs: nounwind uwtable
define hidden range(i32 0, 2) i32 @opj_stream_flush(ptr noundef captures(none) initializes((64, 72)) %0, ptr noundef %1) local_unnamed_addr #5 {
  %3 = getelementptr inbounds nuw i8, ptr %0, i64 56
  %4 = load ptr, ptr %3, align 8, !tbaa !24
  %5 = getelementptr inbounds nuw i8, ptr %0, i64 64
  store ptr %4, ptr %5, align 8, !tbaa !25
  %6 = getelementptr inbounds nuw i8, ptr %0, i64 88
  %7 = load i64, ptr %6, align 8, !tbaa !33
  %.not18 = icmp eq i64 %7, 0
  br i1 %.not18, label %._crit_edge, label %.lr.ph

.lr.ph:                                           ; preds = %2
  %8 = getelementptr inbounds nuw i8, ptr %0, i64 32
  br label %9

9:                                                ; preds = %.lr.ph, %21
  %10 = phi ptr [ %4, %.lr.ph ], [ %23, %21 ]
  %11 = phi i64 [ %7, %.lr.ph ], [ %25, %21 ]
  %12 = load ptr, ptr %8, align 8, !tbaa !30
  %13 = load ptr, ptr %0, align 8, !tbaa !36
  %14 = tail call i64 %12(ptr noundef %10, i64 noundef %11, ptr noundef %13) #9
  %15 = icmp eq i64 %14, -1
  br i1 %15, label %16, label %21

16:                                               ; preds = %9
  %17 = getelementptr inbounds nuw i8, ptr %0, i64 112
  %18 = load i32, ptr %17, align 8, !tbaa !26
  %19 = or i32 %18, 8
  store i32 %19, ptr %17, align 8, !tbaa !26
  %20 = tail call i32 (ptr, i32, ptr, ...) @opj_event_msg(ptr noundef %1, i32 noundef 4, ptr noundef nonnull @.str.1) #9
  br label %27

21:                                               ; preds = %9
  %22 = load ptr, ptr %5, align 8, !tbaa !25
  %23 = getelementptr inbounds nuw i8, ptr %22, i64 %14
  store ptr %23, ptr %5, align 8, !tbaa !25
  %24 = load i64, ptr %6, align 8, !tbaa !33
  %25 = sub i64 %24, %14
  store i64 %25, ptr %6, align 8, !tbaa !33
  %.not = icmp eq i64 %25, 0
  br i1 %.not, label %._crit_edge.loopexit, label %9, !llvm.loop !38

._crit_edge.loopexit:                             ; preds = %21
  %.pre = load ptr, ptr %3, align 8, !tbaa !24
  br label %._crit_edge

._crit_edge:                                      ; preds = %._crit_edge.loopexit, %2
  %26 = phi ptr [ %.pre, %._crit_edge.loopexit ], [ %4, %2 ]
  store ptr %26, ptr %5, align 8, !tbaa !25
  br label %27

27:                                               ; preds = %._crit_edge, %16
  %.0 = phi i32 [ 0, %16 ], [ 1, %._crit_edge ]
  ret i32 %.0
}